target datalayout = "e-m:e-p270:32:32-p271:32:32-p272:64:64-i64:64-i128:128-f80:128-n8:16:32:64-S128"
target triple = "x86_64-pc-linux-gnu"

%class.symbol = type { ptr }
%class.bv_decl_plugin = type { %class.decl_plugin.base, %class.symbol, %class.symbol, %class.symbol, %class.symbol, %class.symbol, %class.symbol, %class.symbol, %class.symbol, %class.symbol, %class.symbol, ptr, ptr, ptr, ptr, %class.ptr_vector, ptr, %class.ptr_vector.0, %class.ptr_vector.0, %class.ptr_vector.0, %class.ptr_vector.0, %class.ptr_vector.0, %class.ptr_vector.0, %class.ptr_vector.0, %class.ptr_vector.0, %class.ptr_vector.0, %class.ptr_vector.0, %class.ptr_vector.0, %class.ptr_vector.0, %class.ptr_vector.0, %class.ptr_vector.0, %class.ptr_vector.0, %class.ptr_vector.0, %class.ptr_vector.0, %class.ptr_vector.0, %class.ptr_vector.0, %class.ptr_vector.0, %class.ptr_vector.0, %class.ptr_vector.0, %class.ptr_vector.0, %class.ptr_vector.0, %class.ptr_vector.0, %class.ptr_vector.0, %class.ptr_vector.0, %class.ptr_vector.0, %class.ptr_vector.0, %class.ptr_vector.0, %class.ptr_vector.0, %class.ptr_vector.0, %class.ptr_vector.0, %class.ptr_vector.0, %class.ptr_vector.0, %class.ptr_vector.0, %class.ptr_vector.0, %class.ptr_vector.0, %class.ptr_vector.0, %class.ptr_vector.0, %class.ptr_vector.0, %class.ptr_vector.0, %class.ptr_vector.0, %class.ptr_vector.0, %class.ptr_vector.0, %class.ptr_vector.0, %class.ptr_vector.0, %class.ptr_vector.0, %class.ptr_vector.0, %class.ptr_vector.0, %class.ptr_vector.0, %class.ptr_vector.0, %class.ptr_vector.0, %class.ptr_vector.0, %class.ptr_vector.0, %class.vector.2, %class.ptr_vector.0 }
%class.decl_plugin.base = type <{ ptr, ptr, i32 }>
%class.ptr_vector = type { %class.vector }
%class.vector = type { ptr }
%class.vector.2 = type { ptr }
%class.ptr_vector.0 = type { %class.vector.1 }
%class.vector.1 = type { ptr }
%class.decl_plugin = type <{ ptr, ptr, i32, [4 x i8] }>

@.str = private unnamed_addr constant [3 x i8] c"bv\00", align 1
@.str.1 = private unnamed_addr constant [7 x i8] c"concat\00", align 1
@.str.2 = private unnamed_addr constant [12 x i8] c"sign_extend\00", align 1
@.str.3 = private unnamed_addr constant [12 x i8] c"zero_extend\00", align 1
@.str.4 = private unnamed_addr constant [8 x i8] c"extract\00", align 1
@.str.5 = private unnamed_addr constant [12 x i8] c"rotate_left\00", align 1
@.str.6 = private unnamed_addr constant [13 x i8] c"rotate_right\00", align 1
@.str.7 = private unnamed_addr constant [7 x i8] c"repeat\00", align 1
@.str.8 = private unnamed_addr constant [9 x i8] c"bit2bool\00", align 1
@.str.9 = private unnamed_addr constant [5 x i8] c"mkbv\00", align 1
@_ZTV11decl_plugin = external unnamed_addr constant { [23 x ptr] }, align 8

; Function Attrs: mustprogress nounwind uwtable
define linkonce_odr hidden void @_ZN6vectorIP9func_declLb0EjEC2Ev(ptr noundef nonnull align 8 dereferenceable(8) %0) unnamed_addr #6 comdat align 2 {
  %2 = alloca ptr, align 8
  store ptr %0, ptr %2, align 8, !tbaa !133
  %3 = load ptr, ptr %2, align 8
  %4 = getelementptr inbounds nuw %class.vector.1, ptr %3, i32 0, i32 0
  store ptr null, ptr %4, align 8, !tbaa !135
  ret void
}

; Function Attrs: mustprogress nounwind uwtable
define linkonce_odr hidden void @_ZN6vectorIP4sortLb0EjEC2Ev(ptr noundef nonnull align 8 dereferenceable(8) %0) unnamed_addr #6 comdat align 2 {
  %2 = alloca ptr, align 8
  store ptr %0, ptr %2, align 8, !tbaa !126
  %3 = load ptr, ptr %2, align 8
  %4 = getelementptr inbounds nuw %class.vector, ptr %3, i32 0, i32 0
  store ptr null, ptr %4, align 8, !tbaa !128
  ret void
}

; Function Attrs: mustprogress nounwind uwtable
define linkonce_odr hidden void @_ZN11decl_pluginD2Ev(ptr noundef nonnull align 8 dereferenceable(20) %0) unnamed_addr #6 comdat align 2 {
  %2 = alloca ptr, align 8
  store ptr %0, ptr %2, align 8, !tbaa !32
  ret void
}

; Function Attrs: mustprogress nounwind uwtable
define linkonce_odr hidden void @_ZN6vectorI10ptr_vectorI9func_declELb1EjEC2Ev(ptr noundef nonnull align 8 dereferenceable(8) %0) unnamed_addr #6 comdat align 2 {
  %2 = alloca ptr, align 8
  store ptr %0, ptr %2, align 8, !tbaa !39
  %3 = load ptr, ptr %2, align 8
  %4 = getelementptr inbounds nuw %class.vector.2, ptr %3, i32 0, i32 0
  store ptr null, ptr %4, align 8, !tbaa !41
  ret void
}

; Function Attrs: mustprogress nounwind uwtable
define linkonce_odr hidden void @_ZN10ptr_vectorI9func_declEC2Ev(ptr noundef nonnull align 8 dereferenceable(8) %0) unnamed_addr #6 comdat align 2 {
  %2 = alloca ptr, align 8
  store ptr %0, ptr %2, align 8, !tbaa !38
  %3 = load ptr, ptr %2, align 8
  call void @_ZN6vectorIP9func_declLb0EjEC2Ev(ptr noundef nonnull align 8 dereferenceable(8) %3) #3
  ret void
}

; Function Attrs: mustprogress nounwind uwtable
define linkonce_odr hidden void @_ZN10ptr_vectorI4sortEC2Ev(ptr noundef nonnull align 8 dereferenceable(8) %0) unnamed_addr #6 comdat align 2 {
  %2 = alloca ptr, align 8
  store ptr %0, ptr %2, align 8, !tbaa !36
  %3 = load ptr, ptr %2, align 8
  call void @_ZN6vectorIP4sortLb0EjEC2Ev(ptr noundef nonnull align 8 dereferenceable(8) %3) #3
  ret void
}

; Function Attrs: inlinehint mustprogress nounwind uwtable
define linkonce_odr hidden void @_ZN11decl_pluginC2Ev(ptr noundef nonnull align 8 dereferenceable(20) %0) unnamed_addr #5 comdat align 2 {
  %2 = alloca ptr, align 8
  store ptr %0, ptr %2, align 8, !tbaa !32
  %3 = load ptr, ptr %2, align 8
  store ptr getelementptr inbounds inrange(-16, 168) ({ [23 x ptr] }, ptr @_ZTV11decl_plugin, i32 0, i32 0, i32 2), ptr %3, align 8, !tbaa !8
  %4 = getelementptr inbounds nuw %class.decl_plugin, ptr %3, i32 0, i32 1
  store ptr null, ptr %4, align 8, !tbaa !34
  %5 = getelementptr inbounds nuw %class.decl_plugin, ptr %3, i32 0, i32 2
  store i32 -1, ptr %5, align 8, !tbaa !35
  ret void
}

; Function Attrs: mustprogress uwtable
define hidden void @_ZN14bv_decl_pluginC2Ev(ptr noundef nonnull align 8 dereferenceable(608) %0) unnamed_addr #4 align 2 personality ptr @__gxx_personality_v0 {
  %2 = alloca ptr, align 8
  %3 = alloca ptr, align 8
  %4 = alloca i32, align 4
  store ptr %0, ptr %2, align 8, !tbaa !3
  %5 = load ptr, ptr %2, align 8
  call void @_ZN11decl_pluginC2Ev(ptr noundef nonnull align 8 dereferenceable(20) %5) #3
  store ptr getelementptr inbounds inrange(-16, 168) ({ [23 x ptr] }, ptr @_ZTV14bv_decl_plugin, i32 0, i32 0, i32 2), ptr %5, align 8, !tbaa !8
  %6 = getelementptr inbounds nuw %class.bv_decl_plugin, ptr %5, i32 0, i32 1
  invoke void @_ZN6symbolC1EPKc(ptr noundef nonnull align 8 dereferenceable(8) %6, ptr noundef @.str)
          to label %7 unwind label %89

7:                                                ; preds = %1
  %8 = getelementptr inbounds nuw %class.bv_decl_plugin, ptr %5, i32 0, i32 2
  invoke void @_ZN6symbolC1EPKc(ptr noundef nonnull align 8 dereferenceable(8) %8, ptr noundef @.str.1)
          to label %9 unwind label %89

9:                                                ; preds = %7
  %10 = getelementptr inbounds nuw %class.bv_decl_plugin, ptr %5, i32 0, i32 3
  invoke void @_ZN6symbolC1EPKc(ptr noundef nonnull align 8 dereferenceable(8) %10, ptr noundef @.str.2)
          to label %11 unwind label %89

11:                                               ; preds = %9
  %12 = getelementptr inbounds nuw %class.bv_decl_plugin, ptr %5, i32 0, i32 4
  invoke void @_ZN6symbolC1EPKc(ptr noundef nonnull align 8 dereferenceable(8) %12, ptr noundef @.str.3)
          to label %13 unwind label %89

13:                                               ; preds = %11
  %14 = getelementptr inbounds nuw %class.bv_decl_plugin, ptr %5, i32 0, i32 5
  invoke void @_ZN6symbolC1EPKc(ptr noundef nonnull align 8 dereferenceable(8) %14, ptr noundef @.str.4)
          to label %15 unwind label %89

15:                                               ; preds = %13
  %16 = getelementptr inbounds nuw %class.bv_decl_plugin, ptr %5, i32 0, i32 6
  invoke void @_ZN6symbolC1EPKc(ptr noundef nonnull align 8 dereferenceable(8) %16, ptr noundef @.str.5)
          to label %17 unwind label %89

17:                                               ; preds = %15
  %18 = getelementptr inbounds nuw %class.bv_decl_plugin, ptr %5, i32 0, i32 7
  invoke void @_ZN6symbolC1EPKc(ptr noundef nonnull align 8 dereferenceable(8) %18, ptr noundef @.str.6)
          to label %19 unwind label %89

19:                                               ; preds = %17
  %20 = getelementptr inbounds nuw %class.bv_decl_plugin, ptr %5, i32 0, i32 8
  invoke void @_ZN6symbolC1EPKc(ptr noundef nonnull align 8 dereferenceable(8) %20, ptr noundef @.str.7)
          to label %21 unwind label %89

21:                                               ; preds = %19
  %22 = getelementptr inbounds nuw %class.bv_decl_plugin, ptr %5, i32 0, i32 9
  invoke void @_ZN6symbolC1EPKc(ptr noundef nonnull align 8 dereferenceable(8) %22, ptr noundef @.str.8)
          to label %23 unwind label %89

23:                                               ; preds = %21
  %24 = getelementptr inbounds nuw %class.bv_decl_plugin, ptr %5, i32 0, i32 10
  invoke void @_ZN6symbolC1EPKc(ptr noundef nonnull align 8 dereferenceable(8) %24, ptr noundef @.str.9)
          to label %25 unwind label %89

25:                                               ; preds = %23
  %26 = getelementptr inbounds nuw %class.bv_decl_plugin, ptr %5, i32 0, i32 11
  store ptr null, ptr %26, align 8, !tbaa !10
  %27 = getelementptr inbounds nuw %class.bv_decl_plugin, ptr %5, i32 0, i32 12
  store ptr null, ptr %27, align 8, !tbaa !28
  %28 = getelementptr inbounds nuw %class.bv_decl_plugin, ptr %5, i32 0, i32 13
  store ptr null, ptr %28, align 8, !tbaa !29
  %29 = getelementptr inbounds nuw %class.bv_decl_plugin, ptr %5, i32 0, i32 14
  store ptr null, ptr %29, align 8, !tbaa !30
  %30 = getelementptr inbounds nuw %class.bv_decl_plugin, ptr %5, i32 0, i32 15
  call void @_ZN10ptr_vectorI4sortEC2Ev(ptr noundef nonnull align 8 dereferenceable(8) %30) #3
  %31 = getelementptr inbounds nuw %class.bv_decl_plugin, ptr %5, i32 0, i32 16
  store ptr null, ptr %31, align 8, !tbaa !31
  %32 = getelementptr inbounds nuw %class.bv_decl_plugin, ptr %5, i32 0, i32 17
  call void @_ZN10ptr_vectorI9func_declEC2Ev(ptr noundef nonnull align 8 dereferenceable(8) %32) #3
  %33 = getelementptr inbounds nuw %class.bv_decl_plugin, ptr %5, i32 0, i32 18
  call void @_ZN10ptr_vectorI9func_declEC2Ev(ptr noundef nonnull align 8 dereferenceable(8) %33) #3
  %34 = getelementptr inbounds nuw %class.bv_decl_plugin, ptr %5, i32 0, i32 19
  call void @_ZN10ptr_vectorI9func_declEC2Ev(ptr noundef nonnull align 8 dereferenceable(8) %34) #3
  %35 = getelementptr inbounds nuw %class.bv_decl_plugin, ptr %5, i32 0, i32 20
  call void @_ZN10ptr_vectorI9func_declEC2Ev(ptr noundef nonnull align 8 dereferenceable(8) %35) #3
  %36 = getelementptr inbounds nuw %class.bv_decl_plugin, ptr %5, i32 0, i32 21
  call void @_ZN10ptr_vectorI9func_declEC2Ev(ptr noundef nonnull align 8 dereferenceable(8) %36) #3
  %37 = getelementptr inbounds nuw %class.bv_decl_plugin, ptr %5, i32 0, i32 22
  call void @_ZN10ptr_vectorI9func_declEC2Ev(ptr noundef nonnull align 8 dereferenceable(8) %37) #3
  %38 = getelementptr inbounds nuw %class.bv_decl_plugin, ptr %5, i32 0, i32 23
  call void @_ZN10ptr_vectorI9func_declEC2Ev(ptr noundef nonnull align 8 dereferenceable(8) %38) #3
  %39 = getelementptr inbounds nuw %class.bv_decl_plugin, ptr %5, i32 0, i32 24
  call void @_ZN10ptr_vectorI9func_declEC2Ev(ptr noundef nonnull align 8 dereferenceable(8) %39) #3
  %40 = getelementptr inbounds nuw %class.bv_decl_plugin, ptr %5, i32 0, i32 25
  call void @_ZN10ptr_vectorI9func_declEC2Ev(ptr noundef nonnull align 8 dereferenceable(8) %40) #3
  %41 = getelementptr inbounds nuw %class.bv_decl_plugin, ptr %5, i32 0, i32 26
  call void @_ZN10ptr_vectorI9func_declEC2Ev(ptr noundef nonnull align 8 dereferenceable(8) %41) #3
  %42 = getelementptr inbounds nuw %class.bv_decl_plugin, ptr %5, i32 0, i32 27
  call void @_ZN10ptr_vectorI9func_declEC2Ev(ptr noundef nonnull align 8 dereferenceable(8) %42) #3
  %43 = getelementptr inbounds nuw %class.bv_decl_plugin, ptr %5, i32 0, i32 28
  call void @_ZN10ptr_vectorI9func_declEC2Ev(ptr noundef nonnull align 8 dereferenceable(8) %43) #3
  %44 = getelementptr inbounds nuw %class.bv_decl_plugin, ptr %5, i32 0, i32 29
  call void @_ZN10ptr_vectorI9func_declEC2Ev(ptr noundef nonnull align 8 dereferenceable(8) %44) #3
  %45 = getelementptr inbounds nuw %class.bv_decl_plugin, ptr %5, i32 0, i32 30
  call void @_ZN10ptr_vectorI9func_declEC2Ev(ptr noundef nonnull align 8 dereferenceable(8) %45) #3
  %46 = getelementptr inbounds nuw %class.bv_decl_plugin, ptr %5, i32 0, i32 31
  call void @_ZN10ptr_vectorI9func_declEC2Ev(ptr noundef nonnull align 8 dereferenceable(8) %46) #3
  %47 = getelementptr inbounds nuw %class.bv_decl_plugin, ptr %5, i32 0, i32 32
  call void @_ZN10ptr_vectorI9func_declEC2Ev(ptr noundef nonnull align 8 dereferenceable(8) %47) #3
  %48 = getelementptr inbounds nuw %class.bv_decl_plugin, ptr %5, i32 0, i32 33
  call void @_ZN10ptr_vectorI9func_declEC2Ev(ptr noundef nonnull align 8 dereferenceable(8) %48) #3
  %49 = getelementptr inbounds nuw %class.bv_decl_plugin, ptr %5, i32 0, i32 34
  call void @_ZN10ptr_vectorI9func_declEC2Ev(ptr noundef nonnull align 8 dereferenceable(8) %49) #3
  %50 = getelementptr inbounds nuw %class.bv_decl_plugin, ptr %5, i32 0, i32 35
  call void @_ZN10ptr_vectorI9func_declEC2Ev(ptr noundef nonnull align 8 dereferenceable(8) %50) #3
  %51 = getelementptr inbounds nuw %class.bv_decl_plugin, ptr %5, i32 0, i32 36
  call void @_ZN10ptr_vectorI9func_declEC2Ev(ptr noundef nonnull align 8 dereferenceable(8) %51) #3
  %52 = getelementptr inbounds nuw %class.bv_decl_plugin, ptr %5, i32 0, i32 37
  call void @_ZN10ptr_vectorI9func_declEC2Ev(ptr noundef nonnull align 8 dereferenceable(8) %52) #3
  %53 = getelementptr inbounds nuw %class.bv_decl_plugin, ptr %5, i32 0, i32 38
  call void @_ZN10ptr_vectorI9func_declEC2Ev(ptr noundef nonnull align 8 dereferenceable(8) %53) #3
  %54 = getelementptr inbounds nuw %class.bv_decl_plugin, ptr %5, i32 0, i32 39
  call void @_ZN10ptr_vectorI9func_declEC2Ev(ptr noundef nonnull align 8 dereferenceable(8) %54) #3
  %55 = getelementptr inbounds nuw %class.bv_decl_plugin, ptr %5, i32 0, i32 40
  call void @_ZN10ptr_vectorI9func_declEC2Ev(ptr noundef nonnull align 8 dereferenceable(8) %55) #3
  %56 = getelementptr inbounds nuw %class.bv_decl_plugin, ptr %5, i32 0, i32 41
  call void @_ZN10ptr_vectorI9func_declEC2Ev(ptr noundef nonnull align 8 dereferenceable(8) %56) #3
  %57 = getelementptr inbounds nuw %class.bv_decl_plugin, ptr %5, i32 0, i32 42
  call void @_ZN10ptr_vectorI9func_declEC2Ev(ptr noundef nonnull align 8 dereferenceable(8) %57) #3
  %58 = getelementptr inbounds nuw %class.bv_decl_plugin, ptr %5, i32 0, i32 43
  call void @_ZN10ptr_vectorI9func_declEC2Ev(ptr noundef nonnull align 8 dereferenceable(8) %58) #3
  %59 = getelementptr inbounds nuw %class.bv_decl_plugin, ptr %5, i32 0, i32 44
  call void @_ZN10ptr_vectorI9func_declEC2Ev(ptr noundef nonnull align 8 dereferenceable(8) %59) #3
  %60 = getelementptr inbounds nuw %class.bv_decl_plugin, ptr %5, i32 0, i32 45
  call void @_ZN10ptr_vectorI9func_declEC2Ev(ptr noundef nonnull align 8 dereferenceable(8) %60) #3
  %61 = getelementptr inbounds nuw %class.bv_decl_plugin, ptr %5, i32 0, i32 46
  call void @_ZN10ptr_vectorI9func_declEC2Ev(ptr noundef nonnull align 8 dereferenceable(8) %61) #3
  %62 = getelementptr inbounds nuw %class.bv_decl_plugin, ptr %5, i32 0, i32 47
  call void @_ZN10ptr_vectorI9func_declEC2Ev(ptr noundef nonnull align 8 dereferenceable(8) %62) #3
  %63 = getelementptr inbounds nuw %class.bv_decl_plugin, ptr %5, i32 0, i32 48
  call void @_ZN10ptr_vectorI9func_declEC2Ev(ptr noundef nonnull align 8 dereferenceable(8) %63) #3
  %64 = getelementptr inbounds nuw %class.bv_decl_plugin, ptr %5, i32 0, i32 49
  call void @_ZN10ptr_vectorI9func_declEC2Ev(ptr noundef nonnull align 8 dereferenceable(8) %64) #3
  %65 = getelementptr inbounds nuw %class.bv_decl_plugin, ptr %5, i32 0, i32 50
  call void @_ZN10ptr_vectorI9func_declEC2Ev(ptr noundef nonnull align 8 dereferenceable(8) %65) #3
  %66 = getelementptr inbounds nuw %class.bv_decl_plugin, ptr %5, i32 0, i32 51
  call void @_ZN10ptr_vectorI9func_declEC2Ev(ptr noundef nonnull align 8 dereferenceable(8) %66) #3
  %67 = getelementptr inbounds nuw %class.bv_decl_plugin, ptr %5, i32 0, i32 52
  call void @_ZN10ptr_vectorI9func_declEC2Ev(ptr noundef nonnull align 8 dereferenceable(8) %67) #3
  %68 = getelementptr inbounds nuw %class.bv_decl_plugin, ptr %5, i32 0, i32 53
  call void @_ZN10ptr_vectorI9func_declEC2Ev(ptr noundef nonnull align 8 dereferenceable(8) %68) #3
  %69 = getelementptr inbounds nuw %class.bv_decl_plugin, ptr %5, i32 0, i32 54
  call void @_ZN10ptr_vectorI9func_declEC2Ev(ptr noundef nonnull align 8 dereferenceable(8) %69) #3
  %70 = getelementptr inbounds nuw %class.bv_decl_plugin, ptr %5, i32 0, i32 55
  call void @_ZN10ptr_vectorI9func_declEC2Ev(ptr noundef nonnull align 8 dereferenceable(8) %70) #3
  %71 = getelementptr inbounds nuw %class.bv_decl_plugin, ptr %5, i32 0, i32 56
  call void @_ZN10ptr_vectorI9func_declEC2Ev(ptr noundef nonnull align 8 dereferenceable(8) %71) #3
  %72 = getelementptr inbounds nuw %class.bv_decl_plugin, ptr %5, i32 0, i32 57
  call void @_ZN10ptr_vectorI9func_declEC2Ev(ptr noundef nonnull align 8 dereferenceable(8) %72) #3
  %73 = getelementptr inbounds nuw %class.bv_decl_plugin, ptr %5, i32 0, i32 58
  call void @_ZN10ptr_vectorI9func_declEC2Ev(ptr noundef nonnull align 8 dereferenceable(8) %73) #3
  %74 = getelementptr inbounds nuw %class.bv_decl_plugin, ptr %5, i32 0, i32 59
  call void @_ZN10ptr_vectorI9func_declEC2Ev(ptr noundef nonnull align 8 dereferenceable(8) %74) #3
  %75 = getelementptr inbounds nuw %class.bv_decl_plugin, ptr %5, i32 0, i32 60
  call void @_ZN10ptr_vectorI9func_declEC2Ev(ptr noundef nonnull align 8 dereferenceable(8) %75) #3
  %76 = getelementptr inbounds nuw %class.bv_decl_plugin, ptr %5, i32 0, i32 61
  call void @_ZN10ptr_vectorI9func_declEC2Ev(ptr noundef nonnull align 8 dereferenceable(8) %76) #3
  %77 = getelementptr inbounds nuw %class.bv_decl_plugin, ptr %5, i32 0, i32 62
  call void @_ZN10ptr_vectorI9func_declEC2Ev(ptr noundef nonnull align 8 dereferenceable(8) %77) #3
  %78 = getelementptr inbounds nuw %class.bv_decl_plugin, ptr %5, i32 0, i32 63
  call void @_ZN10ptr_vectorI9func_declEC2Ev(ptr noundef nonnull align 8 dereferenceable(8) %78) #3
  %79 = getelementptr inbounds nuw %class.bv_decl_plugin, ptr %5, i32 0, i32 64
  call void @_ZN10ptr_vectorI9func_declEC2Ev(ptr noundef nonnull align 8 dereferenceable(8) %79) #3
  %80 = getelementptr inbounds nuw %class.bv_decl_plugin, ptr %5, i32 0, i32 65
  call void @_ZN10ptr_vectorI9func_declEC2Ev(ptr noundef nonnull align 8 dereferenceable(8) %80) #3
  %81 = getelementptr inbounds nuw %class.bv_decl_plugin, ptr %5, i32 0, i32 66
  call void @_ZN10ptr_vectorI9func_declEC2Ev(ptr noundef nonnull align 8 dereferenceable(8) %81) #3
  %82 = getelementptr inbounds nuw %class.bv_decl_plugin, ptr %5, i32 0, i32 67
  call void @_ZN10ptr_vectorI9func_declEC2Ev(ptr noundef nonnull align 8 dereferenceable(8) %82) #3
  %83 = getelementptr inbounds nuw %class.bv_decl_plugin, ptr %5, i32 0, i32 68
  call void @_ZN10ptr_vectorI9func_declEC2Ev(ptr noundef nonnull align 8 dereferenceable(8) %83) #3
  %84 = getelementptr inbounds nuw %class.bv_decl_plugin, ptr %5, i32 0, i32 69
  call void @_ZN10ptr_vectorI9func_declEC2Ev(ptr noundef nonnull align 8 dereferenceable(8) %84) #3
  %85 = getelementptr inbounds nuw %class.bv_decl_plugin, ptr %5, i32 0, i32 70
  call void @_ZN10ptr_vectorI9func_declEC2Ev(ptr noundef nonnull align 8 dereferenceable(8) %85) #3
  %86 = getelementptr inbounds nuw %class.bv_decl_plugin, ptr %5, i32 0, i32 71
  call void @_ZN10ptr_vectorI9func_declEC2Ev(ptr noundef nonnull align 8 dereferenceable(8) %86) #3
  %87 = getelementptr inbounds nuw %class.bv_decl_plugin, ptr %5, i32 0, i32 72
  call void @_ZN6vectorI10ptr_vectorI9func_declELb1EjEC2Ev(ptr noundef nonnull align 8 dereferenceable(8) %87) #3
  %88 = getelementptr inbounds nuw %class.bv_decl_plugin, ptr %5, i32 0, i32 73
  call void @_ZN10ptr_vectorI9func_declEC2Ev(ptr noundef nonnull align 8 dereferenceable(8) %88) #3
  ret void

89:                                               ; preds = %23, %21, %19, %17, %15, %13, %11, %9, %7, %1
  %90 = landingpad { ptr, i32 }
          cleanup
  %91 = extractvalue { ptr, i32 } %90, 0
  store ptr %91, ptr %3, align 8
  %92 = extractvalue { ptr, i32 } %90, 1
  store i32 %92, ptr %4, align 4
  call void @_ZN11decl_pluginD2Ev(ptr noundef nonnull align 8 dereferenceable(20) %5) #3
  br label %93

93:                                               ; preds = %89
  %94 = load ptr, ptr %3, align 8
  %95 = load i32, ptr %4, align 4
  %96 = insertvalue { ptr, i32 } poison, ptr %94, 0
  %97 = insertvalue { ptr, i32 } %96, i32 %95, 1
  resume { ptr, i32 } %97
}